; ModuleID = '46/3557.c'
source_filename = "46/3557.c"
target datalayout = "e-m:e-p270:32:32-p271:32:32-p272:64:64-i64:64-f80:128-n8:16:32:64-S128"
target triple = "x86_64-pc-linux-gnu"

@.str = private unnamed_addr constant [6 x i8] c"%d %d\00", align 1
@.str.1 = private unnamed_addr constant [3 x i8] c"%d\00", align 1
@.str.2 = private unnamed_addr constant [4 x i8] c"%d\0A\00", align 1

; Function Attrs: noinline nounwind uwtable
define dso_local i32 @main() #0 {
  %1 = alloca i32, align 4
  %2 = alloca [100 x [100 x i32]], align 16
  %3 = alloca i32, align 4
  %4 = alloca i32, align 4
  %5 = alloca i32, align 4
  %6 = alloca i32, align 4
  %7 = alloca i32, align 4
  %8 = alloca i32, align 4
  %9 = alloca i32, align 4
  %10 = alloca i32, align 4
  %11 = alloca i32, align 4
  store i32 0, i32* %1, align 4
  store i32 0, i32* %7, align 4
  store i32 0, i32* %11, align 4
  %12 = call i32 (i8*, ...) @__isoc99_scanf(i8* getelementptr inbounds ([6 x i8], [6 x i8]* @.str, i64 0, i64 0), i32* %5, i32* %6)
  %13 = load i32, i32* %6, align 4
  %14 = sub nsw i32 %13, 1
  store i32 %14, i32* %8, align 4
  %15 = load i32, i32* %5, align 4
  %16 = sub nsw i32 %15, 1
  store i32 %16, i32* %9, align 4
  %17 = load i32, i32* %5, align 4
  %18 = load i32, i32* %6, align 4
  %19 = mul nsw i32 %17, %18
  store i32 %19, i32* %10, align 4
  store i32 0, i32* %3, align 4
  br label %20

20:                                               ; preds = %41, %0
  %21 = load i32, i32* %3, align 4
  %22 = load i32, i32* %5, align 4
  %23 = icmp slt i32 %21, %22
  br i1 %23, label %24, label %44

24:                                               ; preds = %20
  store i32 0, i32* %4, align 4
  br label %25

25:                                               ; preds = %37, %24
  %26 = load i32, i32* %4, align 4
  %27 = load i32, i32* %6, align 4
  %28 = icmp slt i32 %26, %27
  br i1 %28, label %29, label %40

29:                                               ; preds = %25
  %30 = load i32, i32* %3, align 4
  %31 = sext i32 %30 to i64
  %32 = getelementptr inbounds [100 x [100 x i32]], [100 x [100 x i32]]* %2, i64 0, i64 %31
  %33 = load i32, i32* %4, align 4
  %34 = sext i32 %33 to i64
  %35 = getelementptr inbounds [100 x i32], [100 x i32]* %32, i64 0, i64 %34
  %36 = call i32 (i8*, ...) @__isoc99_scanf(i8* getelementptr inbounds ([3 x i8], [3 x i8]* @.str.1, i64 0, i64 0), i32* %35)
  br label %37

37:                                               ; preds = %29
  %38 = load i32, i32* %4, align 4
  %39 = add nsw i32 %38, 1
  store i32 %39, i32* %4, align 4
  br label %25

40:                                               ; preds = %25
  br label %41

41:                                               ; preds = %40
  %42 = load i32, i32* %3, align 4
  %43 = add nsw i32 %42, 1
  store i32 %43, i32* %3, align 4
  br label %20

44:                                               ; preds = %20
  br label %45

45:                                               ; preds = %166, %44
  %46 = load i32, i32* %11, align 4
  %47 = icmp ne i32 %46, -1
  br i1 %47, label %48, label %167

48:                                               ; preds = %45
  %49 = load i32, i32* %7, align 4
  store i32 %49, i32* %3, align 4
  %50 = load i32, i32* %7, align 4
  store i32 %50, i32* %4, align 4
  br label %51

51:                                               ; preds = %71, %48
  %52 = load i32, i32* %4, align 4
  %53 = load i32, i32* %8, align 4
  %54 = icmp sle i32 %52, %53
  br i1 %54, label %55, label %74

55:                                               ; preds = %51
  %56 = load i32, i32* %3, align 4
  %57 = sext i32 %56 to i64
  %58 = getelementptr inbounds [100 x [100 x i32]], [100 x [100 x i32]]* %2, i64 0, i64 %57
  %59 = load i32, i32* %4, align 4
  %60 = sext i32 %59 to i64
  %61 = getelementptr inbounds [100 x i32], [100 x i32]* %58, i64 0, i64 %60
  %62 = load i32, i32* %61, align 4
  %63 = call i32 (i8*, ...) @printf(i8* getelementptr inbounds ([4 x i8], [4 x i8]* @.str.2, i64 0, i64 0), i32 %62)
  %64 = load i32, i32* %11, align 4
  %65 = add nsw i32 %64, 1
  store i32 %65, i32* %11, align 4
  %66 = load i32, i32* %11, align 4
  %67 = load i32, i32* %10, align 4
  %68 = icmp eq i32 %66, %67
  br i1 %68, label %69, label %70

69:                                               ; preds = %55
  store i32 0, i32* %1, align 4
  br label %168

70:                                               ; preds = %55
  br label %71

71:                                               ; preds = %70
  %72 = load i32, i32* %4, align 4
  %73 = add nsw i32 %72, 1
  store i32 %73, i32* %4, align 4
  br label %51

74:                                               ; preds = %51
  %75 = load i32, i32* %8, align 4
  store i32 %75, i32* %4, align 4
  %76 = load i32, i32* %7, align 4
  %77 = add nsw i32 %76, 1
  store i32 %77, i32* %3, align 4
  br label %78

78:                                               ; preds = %98, %74
  %79 = load i32, i32* %3, align 4
  %80 = load i32, i32* %9, align 4
  %81 = icmp sle i32 %79, %80
  br i1 %81, label %82, label %101

82:                                               ; preds = %78
  %83 = load i32, i32* %3, align 4
  %84 = sext i32 %83 to i64
  %85 = getelementptr inbounds [100 x [100 x i32]], [100 x [100 x i32]]* %2, i64 0, i64 %84
  %86 = load i32, i32* %4, align 4
  %87 = sext i32 %86 to i64
  %88 = getelementptr inbounds [100 x i32], [100 x i32]* %85, i64 0, i64 %87
  %89 = load i32, i32* %88, align 4
  %90 = call i32 (i8*, ...) @printf(i8* getelementptr inbounds ([4 x i8], [4 x i8]* @.str.2, i64 0, i64 0), i32 %89)
  %91 = load i32, i32* %11, align 4
  %92 = add nsw i32 %91, 1
  store i32 %92, i32* %11, align 4
  %93 = load i32, i32* %11, align 4
  %94 = load i32, i32* %10, align 4
  %95 = icmp eq i32 %93, %94
  br i1 %95, label %96, label %97

96:                                               ; preds = %82
  store i32 0, i32* %1, align 4
  br label %168

97:                                               ; preds = %82
  br label %98

98:                                               ; preds = %97
  %99 = load i32, i32* %3, align 4
  %100 = add nsw i32 %99, 1
  store i32 %100, i32* %3, align 4
  br label %78

101:                                              ; preds = %78
  %102 = load i32, i32* %9, align 4
  store i32 %102, i32* %3, align 4
  %103 = load i32, i32* %8, align 4
  %104 = sub nsw i32 %103, 1
  store i32 %104, i32* %4, align 4
  br label %105

105:                                              ; preds = %125, %101
  %106 = load i32, i32* %4, align 4
  %107 = load i32, i32* %7, align 4
  %108 = icmp sge i32 %106, %107
  br i1 %108, label %109, label %128

109:                                              ; preds = %105
  %110 = load i32, i32* %3, align 4
  %111 = sext i32 %110 to i64
  %112 = getelementptr inbounds [100 x [100 x i32]], [100 x [100 x i32]]* %2, i64 0, i64 %111
  %113 = load i32, i32* %4, align 4
  %114 = sext i32 %113 to i64
  %115 = getelementptr inbounds [100 x i32], [100 x i32]* %112, i64 0, i64 %114
  %116 = load i32, i32* %115, align 4
  %117 = call i32 (i8*, ...) @printf(i8* getelementptr inbounds ([4 x i8], [4 x i8]* @.str.2, i64 0, i64 0), i32 %116)
  %118 = load i32, i32* %11, align 4
  %119 = add nsw i32 %118, 1
  store i32 %119, i32* %11, align 4
  %120 = load i32, i32* %11, align 4
  %121 = load i32, i32* %10, align 4
  %122 = icmp eq i32 %120, %121
  br i1 %122, label %123, label %124

123:                                              ; preds = %109
  store i32 0, i32* %1, align 4
  br label %168

124:                                              ; preds = %109
  br label %125

125:                                              ; preds = %124
  %126 = load i32, i32* %4, align 4
  %127 = add nsw i32 %126, -1
  store i32 %127, i32* %4, align 4
  br label %105

128:                                              ; preds = %105
  %129 = load i32, i32* %9, align 4
  %130 = sub nsw i32 %129, 1
  store i32 %130, i32* %3, align 4
  %131 = load i32, i32* %7, align 4
  store i32 %131, i32* %4, align 4
  br label %132

132:                                              ; preds = %152, %128
  %133 = load i32, i32* %3, align 4
  %134 = load i32, i32* %7, align 4
  %135 = icmp sgt i32 %133, %134
  br i1 %135, label %136, label %155

136:                                              ; preds = %132
  %137 = load i32, i32* %3, align 4
  %138 = sext i32 %137 to i64
  %139 = getelementptr inbounds [100 x [100 x i32]], [100 x [100 x i32]]* %2, i64 0, i64 %138
  %140 = load i32, i32* %4, align 4
  %141 = sext i32 %140 to i64
  %142 = getelementptr inbounds [100 x i32], [100 x i32]* %139, i64 0, i64 %141
  %143 = load i32, i32* %142, align 4
  %144 = call i32 (i8*, ...) @printf(i8* getelementptr inbounds ([4 x i8], [4 x i8]* @.str.2, i64 0, i64 0), i32 %143)
  %145 = load i32, i32* %11, align 4
  %146 = add nsw i32 %145, 1
  store i32 %146, i32* %11, align 4
  %147 = load i32, i32* %11, align 4
  %148 = load i32, i32* %10, align 4
  %149 = icmp eq i32 %147, %148
  br i1 %149, label %150, label %151

150:                                              ; preds = %136
  store i32 0, i32* %1, align 4
  br label %168

151:                                              ; preds = %136
  br label %152

152:                                              ; preds = %151
  %153 = load i32, i32* %3, align 4
  %154 = add nsw i32 %153, -1
  store i32 %154, i32* %3, align 4
  br label %132

155:                                              ; preds = %132
  %156 = load i32, i32* %7, align 4
  %157 = add nsw i32 %156, 1
  store i32 %157, i32* %7, align 4
  %158 = load i32, i32* %8, align 4
  %159 = add nsw i32 %158, -1
  store i32 %159, i32* %8, align 4
  %160 = load i32, i32* %9, align 4
  %161 = add nsw i32 %160, -1
  store i32 %161, i32* %9, align 4
  %162 = load i32, i32* %11, align 4
  %163 = load i32, i32* %10, align 4
  %164 = icmp eq i32 %162, %163
  br i1 %164, label %165, label %166

165:                                              ; preds = %155
  store i32 0, i32* %1, align 4
  br label %168

166:                                              ; preds = %155
  br label %45

167:                                              ; preds = %45
  store i32 0, i32* %1, align 4
  br label %168

168:                                              ; preds = %167, %165, %150, %123, %96, %69
  %169 = load i32, i32* %1, align 4
  ret i32 %169
}

declare dso_local i32 @__isoc99_scanf(i8*, ...) #1

declare dso_local i32 @printf(i8*, ...) #1


!llvm.module.flags = !{!0}
!llvm.ident = !{!1}

!0 = !{i32 1, !"wchar_size", i32 4}
!1 = !{!"clang version 10.0.0-4ubuntu1 "}
